; ModuleID = '2/1007.c'
source_filename = "2/1007.c"
target datalayout = "e-m:e-p270:32:32-p271:32:32-p272:64:64-i64:64-f80:128-n8:16:32:64-S128"
target triple = "x86_64-pc-linux-gnu"

%struct.book = type { i32, [27 x i8] }

@.str = private unnamed_addr constant [3 x i8] c"%d\00", align 1
@.str.1 = private unnamed_addr constant [5 x i8] c"%d%s\00", align 1
@shu = common dso_local global [1000 x %struct.book] zeroinitializer, align 16
@.str.2 = private unnamed_addr constant [7 x i8] c"%c\0A%d\0A\00", align 1
@.str.3 = private unnamed_addr constant [4 x i8] c"%d\0A\00", align 1

; Function Attrs: noinline nounwind uwtable
define dso_local i32 @main() #0 {
  %1 = alloca i32, align 4
  %2 = alloca i32, align 4
  %3 = alloca i32, align 4
  %4 = alloca i32, align 4
  %5 = alloca i32, align 4
  %6 = alloca i32, align 4
  %7 = alloca i8, align 1
  %8 = alloca [26 x i32], align 16
  store i32 0, i32* %1, align 4
  %9 = bitcast [26 x i32]* %8 to i8*
  call void @llvm.memset.p0i8.i64(i8* align 16 %9, i8 0, i64 104, i1 false)
  %10 = call i32 (i8*, ...) @__isoc99_scanf(i8* getelementptr inbounds ([3 x i8], [3 x i8]* @.str, i64 0, i64 0), i32* %2)
  store i32 0, i32* %3, align 4
  br label %11

11:                                               ; preds = %55, %0
  %12 = load i32, i32* %3, align 4
  %13 = load i32, i32* %2, align 4
  %14 = icmp slt i32 %12, %13
  br i1 %14, label %15, label %58

15:                                               ; preds = %11
  %16 = load i32, i32* %3, align 4
  %17 = sext i32 %16 to i64
  %18 = getelementptr inbounds [1000 x %struct.book], [1000 x %struct.book]* @shu, i64 0, i64 %17
  %19 = getelementptr inbounds %struct.book, %struct.book* %18, i32 0, i32 0
  %20 = load i32, i32* %3, align 4
  %21 = sext i32 %20 to i64
  %22 = getelementptr inbounds [1000 x %struct.book], [1000 x %struct.book]* @shu, i64 0, i64 %21
  %23 = getelementptr inbounds %struct.book, %struct.book* %22, i32 0, i32 1
  %24 = call i32 (i8*, ...) @__isoc99_scanf(i8* getelementptr inbounds ([5 x i8], [5 x i8]* @.str.1, i64 0, i64 0), i32* %19, [27 x i8]* %23)
  %25 = load i32, i32* %3, align 4
  %26 = sext i32 %25 to i64
  %27 = getelementptr inbounds [1000 x %struct.book], [1000 x %struct.book]* @shu, i64 0, i64 %26
  %28 = getelementptr inbounds %struct.book, %struct.book* %27, i32 0, i32 1
  %29 = getelementptr inbounds [27 x i8], [27 x i8]* %28, i64 0, i64 0
  %30 = call i64 @strlen(i8* %29) #4
  %31 = trunc i64 %30 to i32
  store i32 %31, i32* %4, align 4
  store i32 0, i32* %5, align 4
  br label %32

32:                                               ; preds = %51, %15
  %33 = load i32, i32* %5, align 4
  %34 = load i32, i32* %4, align 4
  %35 = icmp slt i32 %33, %34
  br i1 %35, label %36, label %54

36:                                               ; preds = %32
  %37 = load i32, i32* %3, align 4
  %38 = sext i32 %37 to i64
  %39 = getelementptr inbounds [1000 x %struct.book], [1000 x %struct.book]* @shu, i64 0, i64 %38
  %40 = getelementptr inbounds %struct.book, %struct.book* %39, i32 0, i32 1
  %41 = load i32, i32* %5, align 4
  %42 = sext i32 %41 to i64
  %43 = getelementptr inbounds [27 x i8], [27 x i8]* %40, i64 0, i64 %42
  %44 = load i8, i8* %43, align 1
  %45 = sext i8 %44 to i32
  %46 = sub nsw i32 %45, 65
  %47 = sext i32 %46 to i64
  %48 = getelementptr inbounds [26 x i32], [26 x i32]* %8, i64 0, i64 %47
  %49 = load i32, i32* %48, align 4
  %50 = add nsw i32 %49, 1
  store i32 %50, i32* %48, align 4
  br label %51

51:                                               ; preds = %36
  %52 = load i32, i32* %5, align 4
  %53 = add nsw i32 %52, 1
  store i32 %53, i32* %5, align 4
  br label %32

54:                                               ; preds = %32
  br label %55

55:                                               ; preds = %54
  %56 = load i32, i32* %3, align 4
  %57 = add nsw i32 %56, 1
  store i32 %57, i32* %3, align 4
  br label %11

58:                                               ; preds = %11
  %59 = getelementptr inbounds [26 x i32], [26 x i32]* %8, i64 0, i64 0
  %60 = load i32, i32* %59, align 16
  store i32 %60, i32* %6, align 4
  store i8 65, i8* %7, align 1
  store i32 1, i32* %3, align 4
  br label %61

61:                                               ; preds = %80, %58
  %62 = load i32, i32* %3, align 4
  %63 = icmp slt i32 %62, 26
  br i1 %63, label %64, label %83

64:                                               ; preds = %61
  %65 = load i32, i32* %3, align 4
  %66 = sext i32 %65 to i64
  %67 = getelementptr inbounds [26 x i32], [26 x i32]* %8, i64 0, i64 %66
  %68 = load i32, i32* %67, align 4
  %69 = load i32, i32* %6, align 4
  %70 = icmp sgt i32 %68, %69
  br i1 %70, label %71, label %79

71:                                               ; preds = %64
  %72 = load i32, i32* %3, align 4
  %73 = sext i32 %72 to i64
  %74 = getelementptr inbounds [26 x i32], [26 x i32]* %8, i64 0, i64 %73
  %75 = load i32, i32* %74, align 4
  store i32 %75, i32* %6, align 4
  %76 = load i32, i32* %3, align 4
  %77 = add nsw i32 %76, 65
  %78 = trunc i32 %77 to i8
  store i8 %78, i8* %7, align 1
  br label %79

79:                                               ; preds = %71, %64
  br label %80

80:                                               ; preds = %79
  %81 = load i32, i32* %3, align 4
  %82 = add nsw i32 %81, 1
  store i32 %82, i32* %3, align 4
  br label %61

83:                                               ; preds = %61
  %84 = load i8, i8* %7, align 1
  %85 = sext i8 %84 to i32
  %86 = load i32, i32* %6, align 4
  %87 = call i32 (i8*, ...) @printf(i8* getelementptr inbounds ([7 x i8], [7 x i8]* @.str.2, i64 0, i64 0), i32 %85, i32 %86)
  store i32 0, i32* %3, align 4
  br label %88

88:                                               ; preds = %129, %83
  %89 = load i32, i32* %3, align 4
  %90 = load i32, i32* %2, align 4
  %91 = icmp slt i32 %89, %90
  br i1 %91, label %92, label %132

92:                                               ; preds = %88
  %93 = load i32, i32* %3, align 4
  %94 = sext i32 %93 to i64
  %95 = getelementptr inbounds [1000 x %struct.book], [1000 x %struct.book]* @shu, i64 0, i64 %94
  %96 = getelementptr inbounds %struct.book, %struct.book* %95, i32 0, i32 1
  %97 = getelementptr inbounds [27 x i8], [27 x i8]* %96, i64 0, i64 0
  %98 = call i64 @strlen(i8* %97) #4
  %99 = trunc i64 %98 to i32
  store i32 %99, i32* %4, align 4
  store i32 0, i32* %5, align 4
  br label %100

100:                                              ; preds = %125, %92
  %101 = load i32, i32* %5, align 4
  %102 = load i32, i32* %4, align 4
  %103 = icmp slt i32 %101, %102
  br i1 %103, label %104, label %128

104:                                              ; preds = %100
  %105 = load i32, i32* %3, align 4
  %106 = sext i32 %105 to i64
  %107 = getelementptr inbounds [1000 x %struct.book], [1000 x %struct.book]* @shu, i64 0, i64 %106
  %108 = getelementptr inbounds %struct.book, %struct.book* %107, i32 0, i32 1
  %109 = load i32, i32* %5, align 4
  %110 = sext i32 %109 to i64
  %111 = getelementptr inbounds [27 x i8], [27 x i8]* %108, i64 0, i64 %110
  %112 = load i8, i8* %111, align 1
  %113 = sext i8 %112 to i32
  %114 = load i8, i8* %7, align 1
  %115 = sext i8 %114 to i32
  %116 = icmp eq i32 %113, %115
  br i1 %116, label %117, label %124

117:                                              ; preds = %104
  %118 = load i32, i32* %3, align 4
  %119 = sext i32 %118 to i64
  %120 = getelementptr inbounds [1000 x %struct.book], [1000 x %struct.book]* @shu, i64 0, i64 %119
  %121 = getelementptr inbounds %struct.book, %struct.book* %120, i32 0, i32 0
  %122 = load i32, i32* %121, align 16
  %123 = call i32 (i8*, ...) @printf(i8* getelementptr inbounds ([4 x i8], [4 x i8]* @.str.3, i64 0, i64 0), i32 %122)
  br label %124

124:                                              ; preds = %117, %104
  br label %125

125:                                              ; preds = %124
  %126 = load i32, i32* %5, align 4
  %127 = add nsw i32 %126, 1
  store i32 %127, i32* %5, align 4
  br label %100

128:                                              ; preds = %100
  br label %129

129:                                              ; preds = %128
  %130 = load i32, i32* %3, align 4
  %131 = add nsw i32 %130, 1
  store i32 %131, i32* %3, align 4
  br label %88

132:                                              ; preds = %88
  ret i32 0
}

; Function Attrs: argmemonly nounwind willreturn
declare void @llvm.memset.p0i8.i64(i8* nocapture writeonly, i8, i64, i1 immarg) #1

declare dso_local i32 @__isoc99_scanf(i8*, ...) #2

; Function Attrs: nounwind readonly
declare dso_local i64 @strlen(i8*) #3

declare dso_local i32 @printf(i8*, ...) #2


!llvm.module.flags = !{!0}
!llvm.ident = !{!1}

!0 = !{i32 1, !"wchar_size", i32 4}
!1 = !{!"clang version 10.0.0-4ubuntu1 "}
